; Function Attrs: nofree norecurse nosync nounwind memory(readwrite, inaccessiblemem: none) uwtable
define hidden void @lj_trace_flushproto(ptr noundef readonly captures(none) %0, ptr noundef readonly captures(none) %1) local_unnamed_addr #7 {
  %3 = getelementptr inbounds nuw i8, ptr %1, i64 62
  %4 = load i16, ptr %3, align 2, !tbaa !64
  %.not4 = icmp eq i16 %4, 0
  br i1 %.not4, label %._crit_edge, label %.lr.ph

.lr.ph:                                           ; preds = %2
  %5 = getelementptr inbounds nuw i8, ptr %0, i64 736
  %6 = getelementptr inbounds nuw i8, ptr %0, i64 1120
  br label %7

7:                                                ; preds = %.lr.ph, %7
  %8 = phi i16 [ %4, %.lr.ph ], [ %14, %7 ]
  %9 = load ptr, ptr %6, align 8, !tbaa !67
  %10 = zext i16 %8 to i64
  %11 = getelementptr inbounds nuw %struct.GCRef, ptr %9, i64 %10
  %12 = load i64, ptr %11, align 8, !tbaa !41
  %13 = inttoptr i64 %12 to ptr
  tail call fastcc void @trace_flushroot(ptr noundef nonnull %5, ptr noundef %13)
  %14 = load i16, ptr %3, align 2, !tbaa !64
  %.not = icmp eq i16 %14, 0
  br i1 %.not, label %._crit_edge, label %7, !llvm.loop !69

._crit_edge:                                      ; preds = %7, %2
  ret void
}